; Function Attrs: nounwind uwtable
define internal noundef i32 @fref(double %0, ptr noundef %1, ptr noundef %2, ptr readnone captures(none) %3) #0 {
  %5 = tail call ptr @N_VGetArrayPointer(ptr noundef %1) #12
  %6 = tail call ptr @N_VGetArrayPointer(ptr noundef %2) #12
  %7 = getelementptr inbounds nuw i8, ptr %5, i64 8
  %8 = load double, ptr %7, align 8, !tbaa !13
  store double %8, ptr %6, align 8, !tbaa !13
  %9 = load double, ptr %5, align 8, !tbaa !13
  %10 = tail call double @cos(double noundef %9) #12, !tbaa !16
  %11 = fmul double %10, 0xC02B8030B6094833
  %12 = getelementptr inbounds nuw i8, ptr %6, i64 8
  store double %11, ptr %12, align 8, !tbaa !13
  ret i32 0
}